; Function Attrs: mustprogress uwtable
define noundef i32 @zmq_socket_monitor_pipes_stats(ptr noundef %0) local_unnamed_addr #1 {
  %.not.i = icmp eq ptr %0, null
  br i1 %.not.i, label %_ZL16as_socket_base_tPv.exit.thread, label %2

2:                                                ; preds = %1
  %3 = tail call noundef zeroext i1 @_ZNK3zmq13socket_base_t9check_tagEv(ptr noundef nonnull align 8 dereferenceable(1825) %0)
  br i1 %3, label %_ZL16as_socket_base_tPv.exit, label %_ZL16as_socket_base_tPv.exit.thread

_ZL16as_socket_base_tPv.exit.thread:              ; preds = %1, %2
  %4 = tail call ptr @__errno_location() #20
  store i32 88, ptr %4, align 4, !tbaa !3
  br label %6

_ZL16as_socket_base_tPv.exit:                     ; preds = %2
  %5 = tail call noundef i32 @_ZN3zmq13socket_base_t17query_pipes_statsEv(ptr noundef nonnull align 8 dereferenceable(1825) %0)
  br label %6

6:                                                ; preds = %_ZL16as_socket_base_tPv.exit.thread, %_ZL16as_socket_base_tPv.exit
  %.0 = phi i32 [ %5, %_ZL16as_socket_base_tPv.exit ], [ -1, %_ZL16as_socket_base_tPv.exit.thread ]
  ret i32 %.0
}